(dp0
S'colorset1'
p1
(lp2
(lp3
F206.0
aF167.0
aF28.0
aa(lp4
F245.0
aF171.0
aF57.0
aa(lp5
F217.0
aF117.0
aF255.0
aa(lp6
F224.0
aF88.0
aF31.0
aa(lp7
F143.0
aF171.0
aF34.0
aa(lp8
F201.0
aF125.0
aF188.0
aa(lp9
F250.0
aF116.0
aF35.0
aa(lp10
F233.0
aF100.0
aF168.0
aa(lp11
F71.0
aF235.0
aF6.0
aa(lp12
F206.0
aF83.0
aF228.0
aa(lp13
F248.0
aF124.0
aF0.0
aa(lp14
F194.0
aF60.0
aF47.0
aa(lp15
F232.0
aF25.0
aF135.0
aa(lp16
F10.0
aF247.0
aF5.0
aa(lp17
F127.0
aF212.0
aF169.0
aa(lp18
F10.0
aF242.0
aF158.0
aa(lp19
F212.0
aF158.0
aF185.0
aa(lp20
F221.0
aF104.0
aF145.0
aasS'colorset2'
p21
(lp22
(lp23
F63.0
aF237.0
aF34.0
aa(lp24
F123.0
aF224.0
aF51.0
aa(lp25
F3.0
aF193.0
aF240.0
aa(lp26
F58.0
aF150.0
aF12.0
aa(lp27
F88.0
aF192.0
aF31.0
aa(lp28
F97.0
aF170.0
aF187.0
aa(lp29
F73.0
aF191.0
aF41.0
aa(lp30
F41.0
aF179.0
aF170.0
aa(lp31
F243.0
aF178.0
aF34.0
aa(lp32
F69.0
aF139.0
aF225.0
aa(lp33
F17.0
aF235.0
aF18.0
aa(lp34
F145.0
aF83.0
aF48.0
aa(lp35
F32.0
aF113.0
aF139.0
aa(lp36
F243.0
aF160.0
aF42.0
aa(lp37
F40.0
aF254.0
aF169.0
aa(lp38
F206.0
aF154.0
aF156.0
aa(lp39
F25.0
aF247.0
aF181.0
aa(lp40
F55.0
aF166.0
aF132.0
aas.